target datalayout = "e-m:e-p270:32:32-p271:32:32-p272:64:64-i64:64-i128:128-f80:128-n8:16:32:64-S128"
target triple = "x86_64-pc-linux-gnu"

; Function Attrs: inlinehint nounwind uwtable
define internal ptr @Aig_Not(ptr noundef %0) #4 {
  %2 = alloca ptr, align 8
  store ptr %0, ptr %2, align 8, !tbaa !12
  %3 = load ptr, ptr %2, align 8, !tbaa !12
  %4 = ptrtoint ptr %3 to i64
  %5 = xor i64 %4, 1
  %6 = inttoptr i64 %5 to ptr
  ret ptr %6
}

; Function Attrs: nounwind uwtable
define ptr @Inter_ManStartInitState(i32 noundef %0) #0 {
  %2 = alloca i32, align 4
  %3 = alloca ptr, align 8
  %4 = alloca ptr, align 8
  %5 = alloca ptr, align 8
  %6 = alloca i32, align 4
  store i32 %0, ptr %2, align 4, !tbaa !3
  call void @llvm.lifetime.start.p0(i64 8, ptr %3) #7
  call void @llvm.lifetime.start.p0(i64 8, ptr %4) #7
  call void @llvm.lifetime.start.p0(i64 8, ptr %5) #7
  call void @llvm.lifetime.start.p0(i64 4, ptr %6) #7
  %7 = load i32, ptr %2, align 4, !tbaa !3
  %8 = sext i32 %7 to i64
  %9 = mul i64 8, %8
  %10 = call noalias ptr @malloc(i64 noundef %9) #8
  store ptr %10, ptr %5, align 8, !tbaa !7
  %11 = load i32, ptr %2, align 4, !tbaa !3
  %12 = call ptr @Aig_ManStart(i32 noundef %11)
  store ptr %12, ptr %3, align 8, !tbaa !10
  store i32 0, ptr %6, align 4, !tbaa !3
  br label %13

13:                                               ; preds = %25, %1
  %14 = load i32, ptr %6, align 4, !tbaa !3
  %15 = load i32, ptr %2, align 4, !tbaa !3
  %16 = icmp slt i32 %14, %15
  br i1 %16, label %17, label %28

17:                                               ; preds = %13
  %18 = load ptr, ptr %3, align 8, !tbaa !10
  %19 = call ptr @Aig_ObjCreateCi(ptr noundef %18)
  %20 = call ptr @Aig_Not(ptr noundef %19)
  %21 = load ptr, ptr %5, align 8, !tbaa !7
  %22 = load i32, ptr %6, align 4, !tbaa !3
  %23 = sext i32 %22 to i64
  %24 = getelementptr inbounds ptr, ptr %21, i64 %23
  store ptr %20, ptr %24, align 8, !tbaa !12
  br label %25

25:                                               ; preds = %17
  %26 = load i32, ptr %6, align 4, !tbaa !3
  %27 = add nsw i32 %26, 1
  store i32 %27, ptr %6, align 4, !tbaa !3
  br label %13, !llvm.loop !14

28:                                               ; preds = %13
  %29 = load ptr, ptr %3, align 8, !tbaa !10
  %30 = load ptr, ptr %5, align 8, !tbaa !7
  %31 = load i32, ptr %2, align 4, !tbaa !3
  %32 = call ptr @Aig_Multi(ptr noundef %29, ptr noundef %30, i32 noundef %31, i32 noundef 5)
  store ptr %32, ptr %4, align 8, !tbaa !12
  %33 = load ptr, ptr %3, align 8, !tbaa !10
  %34 = load ptr, ptr %4, align 8, !tbaa !12
  %35 = call ptr @Aig_ObjCreateCo(ptr noundef %33, ptr noundef %34)
  %36 = load ptr, ptr %5, align 8, !tbaa !7
  %37 = icmp ne ptr %36, null
  br i1 %37, label %38, label %40

38:                                               ; preds = %28
  %39 = load ptr, ptr %5, align 8, !tbaa !7
  call void @free(ptr noundef %39) #7
  store ptr null, ptr %5, align 8, !tbaa !7
  br label %41

40:                                               ; preds = %28
  br label %41

41:                                               ; preds = %40, %38
  %42 = load ptr, ptr %3, align 8, !tbaa !10
  call void @llvm.lifetime.end.p0(i64 4, ptr %6) #7
  call void @llvm.lifetime.end.p0(i64 8, ptr %5) #7
  call void @llvm.lifetime.end.p0(i64 8, ptr %4) #7
  call void @llvm.lifetime.end.p0(i64 8, ptr %3) #7
  ret ptr %42
}