; Function Attrs: nounwind uwtable
define ptr @Inter_ManStartInitState(i32 noundef %0) local_unnamed_addr #0 {
  %2 = sext i32 %0 to i64
  %3 = shl nsw i64 %2, 3
  %4 = tail call noalias ptr @malloc(i64 noundef %3) #6
  %5 = tail call ptr @Aig_ManStart(i32 noundef %0) #7
  %6 = icmp sgt i32 %0, 0
  br i1 %6, label %.lr.ph.preheader, label %._crit_edge

.lr.ph.preheader:                                 ; preds = %1
  %wide.trip.count = zext nneg i32 %0 to i64
  br label %.lr.ph

.lr.ph:                                           ; preds = %.lr.ph.preheader, %.lr.ph
  %indvars.iv = phi i64 [ 0, %.lr.ph.preheader ], [ %indvars.iv.next, %.lr.ph ]
  %7 = tail call ptr @Aig_ObjCreateCi(ptr noundef %5) #7
  %8 = ptrtoint ptr %7 to i64
  %9 = xor i64 %8, 1
  %10 = inttoptr i64 %9 to ptr
  %11 = getelementptr inbounds nuw ptr, ptr %4, i64 %indvars.iv
  store ptr %10, ptr %11, align 8, !tbaa !3
  %indvars.iv.next = add nuw nsw i64 %indvars.iv, 1
  %exitcond.not = icmp eq i64 %indvars.iv.next, %wide.trip.count
  br i1 %exitcond.not, label %._crit_edge, label %.lr.ph, !llvm.loop !8

._crit_edge:                                      ; preds = %.lr.ph, %1
  %12 = tail call ptr @Aig_Multi(ptr noundef %5, ptr noundef %4, i32 noundef %0, i32 noundef 5) #7
  %13 = tail call ptr @Aig_ObjCreateCo(ptr noundef %5, ptr noundef %12) #7
  %.not = icmp eq ptr %4, null
  br i1 %.not, label %15, label %14

14:                                               ; preds = %._crit_edge
  tail call void @free(ptr noundef nonnull %4) #7
  br label %15

15:                                               ; preds = %._crit_edge, %14
  ret ptr %5
}